target datalayout = "e-m:e-p270:32:32-p271:32:32-p272:64:64-i64:64-i128:128-f80:128-n8:16:32:64-S128"
target triple = "x86_64-pc-linux-gnu"

%"class.tev::ThreadPool" = type { ptr, i64, %"class.std::__1::vector", %"class.std::__1::priority_queue", %"class.std::__1::mutex", %"class.std::__1::condition_variable", %"struct.std::__1::atomic", %"class.std::__1::mutex", %"class.std::__1::condition_variable" }
%"class.std::__1::vector" = type { ptr, ptr, %"class.std::__1::__compressed_pair" }
%"class.std::__1::__compressed_pair" = type { %"struct.std::__1::__compressed_pair_elem" }
%"struct.std::__1::__compressed_pair_elem" = type { ptr }
%"class.std::__1::priority_queue" = type <{ %"class.std::__1::vector.1", %"struct.tev::ThreadPool::QueuedTask::Comparator", [7 x i8] }>
%"class.std::__1::vector.1" = type { ptr, ptr, %"class.std::__1::__compressed_pair.2" }
%"class.std::__1::__compressed_pair.2" = type { %"struct.std::__1::__compressed_pair_elem.3" }
%"struct.std::__1::__compressed_pair_elem.3" = type { ptr }
%"struct.tev::ThreadPool::QueuedTask::Comparator" = type { i8 }
%"struct.std::__1::atomic" = type { %"struct.std::__1::__atomic_base" }
%"struct.std::__1::__atomic_base" = type { %"struct.std::__1::__atomic_base.8" }
%"struct.std::__1::__atomic_base.8" = type { %"struct.std::__1::__cxx_atomic_impl" }
%"struct.std::__1::__cxx_atomic_impl" = type { %"struct.std::__1::__cxx_atomic_base_impl" }
%"struct.std::__1::__cxx_atomic_base_impl" = type { i64 }
%"class.std::__1::mutex" = type { %union.pthread_mutex_t }
%union.pthread_mutex_t = type { %struct.__pthread_mutex_s }
%struct.__pthread_mutex_s = type { i32, i32, i32, i32, i32, i16, i16, %struct.__pthread_internal_list }
%struct.__pthread_internal_list = type { ptr, ptr }
%"class.std::__1::condition_variable" = type { %union.pthread_cond_t }
%union.pthread_cond_t = type { %struct.__pthread_cond_s }
%struct.__pthread_cond_s = type { %union.__atomic_wide_counter, %union.__atomic_wide_counter, [2 x i32], [2 x i32], i32, i32, [2 x i32] }
%union.__atomic_wide_counter = type { i64 }
%"struct.std::__1::__default_init_tag" = type { i8 }
%"struct.std::__1::__less" = type { i8 }

@_ZTVN3tev10ThreadPoolE = dso_local unnamed_addr constant { [4 x ptr] } { [4 x ptr] [ptr null, ptr @_ZTIN3tev10ThreadPoolE, ptr @_ZN3tev10ThreadPoolD1Ev, ptr @_ZN3tev10ThreadPoolD0Ev] }, align 8

; Function Attrs: mustprogress nounwind uwtable
define linkonce_odr hidden void @_ZNSt3__116__non_trivial_ifILb1ENS_9allocatorIN3tev10ThreadPool10QueuedTaskEEEEC2B8ne190000Ev(ptr noundef nonnull align 1 dereferenceable(1) %0) unnamed_addr #1 comdat align 2 {
  %2 = alloca ptr, align 8
  store ptr %0, ptr %2, align 8
  ret void
}

; Function Attrs: mustprogress nounwind uwtable
define linkonce_odr dso_local void @_ZNSt3__122__cxx_atomic_base_implImEC2Em(ptr noundef nonnull align 8 dereferenceable(8) %0, i64 noundef %1) unnamed_addr #1 comdat align 2 {
  %3 = alloca ptr, align 8
  %4 = alloca i64, align 8
  store ptr %0, ptr %3, align 8
  store i64 %1, ptr %4, align 8
  %5 = load ptr, ptr %3, align 8
  %6 = getelementptr inbounds %"struct.std::__1::__cxx_atomic_base_impl", ptr %5, i32 0, i32 0
  %7 = load i64, ptr %4, align 8
  store i64 %7, ptr %6, align 8
  ret void
}

; Function Attrs: mustprogress nounwind uwtable
define linkonce_odr hidden void @_ZNSt3__19allocatorIN3tev10ThreadPool10QueuedTaskEEC2B8ne190000Ev(ptr noundef nonnull align 1 dereferenceable(1) %0) unnamed_addr #1 comdat align 2 {
  %2 = alloca ptr, align 8
  store ptr %0, ptr %2, align 8
  %3 = load ptr, ptr %2, align 8
  call void @_ZNSt3__116__non_trivial_ifILb1ENS_9allocatorIN3tev10ThreadPool10QueuedTaskEEEEC2B8ne190000Ev(ptr noundef nonnull align 1 dereferenceable(1) %3) #13
  ret void
}

; Function Attrs: mustprogress nounwind uwtable
define linkonce_odr hidden void @_ZNSt3__116__non_trivial_ifILb1ENS_9allocatorINS_6threadEEEEC2B8ne190000Ev(ptr noundef nonnull align 1 dereferenceable(1) %0) unnamed_addr #1 comdat align 2 {
  %2 = alloca ptr, align 8
  store ptr %0, ptr %2, align 8
  ret void
}

; Function Attrs: mustprogress nounwind uwtable
define linkonce_odr hidden void @_ZNSt3__117__cxx_atomic_implImNS_22__cxx_atomic_base_implImEEEC2B8ne190000Em(ptr noundef nonnull align 8 dereferenceable(8) %0, i64 noundef %1) unnamed_addr #1 comdat align 2 {
  %3 = alloca ptr, align 8
  %4 = alloca i64, align 8
  store ptr %0, ptr %3, align 8
  store i64 %1, ptr %4, align 8
  %5 = load ptr, ptr %3, align 8
  %6 = load i64, ptr %4, align 8
  call void @_ZNSt3__122__cxx_atomic_base_implImEC2Em(ptr noundef nonnull align 8 dereferenceable(8) %5, i64 noundef %6) #13
  ret void
}

; Function Attrs: mustprogress nounwind uwtable
define linkonce_odr hidden void @_ZNSt3__122__compressed_pair_elemINS_9allocatorIN3tev10ThreadPool10QueuedTaskEEELi1ELb1EEC2B8ne190000ENS_18__default_init_tagE(ptr noundef nonnull align 1 dereferenceable(1) %0) unnamed_addr #1 comdat align 2 {
  %2 = alloca ptr, align 8
  store ptr %0, ptr %2, align 8
  %3 = load ptr, ptr %2, align 8
  call void @_ZNSt3__19allocatorIN3tev10ThreadPool10QueuedTaskEEC2B8ne190000Ev(ptr noundef nonnull align 1 dereferenceable(1) %3) #13
  ret void
}

; Function Attrs: mustprogress nounwind uwtable
define linkonce_odr dso_local void @_ZNSt3__122__compressed_pair_elemIPN3tev10ThreadPool10QueuedTaskELi0ELb0EEC2B8ne190000IDnTnNS_9enable_ifIXntsr7is_sameIS5_u7__decayIT_EEE5valueEiE4typeELi0EEEOS8_(ptr noundef nonnull align 8 dereferenceable(8) %0, ptr noundef nonnull align 8 dereferenceable(8) %1) unnamed_addr #1 comdat align 2 {
  %3 = alloca ptr, align 8
  %4 = alloca ptr, align 8
  store ptr %0, ptr %3, align 8
  store ptr %1, ptr %4, align 8
  %5 = load ptr, ptr %3, align 8
  %6 = getelementptr inbounds %"struct.std::__1::__compressed_pair_elem.3", ptr %5, i32 0, i32 0
  store ptr null, ptr %6, align 8
  ret void
}

; Function Attrs: mustprogress nounwind uwtable
define linkonce_odr hidden void @_ZNSt3__19allocatorINS_6threadEEC2B8ne190000Ev(ptr noundef nonnull align 1 dereferenceable(1) %0) unnamed_addr #1 comdat align 2 {
  %2 = alloca ptr, align 8
  store ptr %0, ptr %2, align 8
  %3 = load ptr, ptr %2, align 8
  call void @_ZNSt3__116__non_trivial_ifILb1ENS_9allocatorINS_6threadEEEEC2B8ne190000Ev(ptr noundef nonnull align 1 dereferenceable(1) %3) #13
  ret void
}

; Function Attrs: mustprogress nounwind uwtable
define linkonce_odr hidden noundef zeroext i1 @_ZNKSt3__16__lessIvvEclB8ne190000ImmEEbRKT_RKT0_(ptr noundef nonnull align 1 dereferenceable(1) %0, ptr noundef nonnull align 8 dereferenceable(8) %1, ptr noundef nonnull align 8 dereferenceable(8) %2) #1 comdat align 2 {
  %4 = alloca ptr, align 8
  %5 = alloca ptr, align 8
  %6 = alloca ptr, align 8
  store ptr %0, ptr %4, align 8
  store ptr %1, ptr %5, align 8
  store ptr %2, ptr %6, align 8
  %7 = load ptr, ptr %5, align 8
  %8 = load i64, ptr %7, align 8
  %9 = load ptr, ptr %6, align 8
  %10 = load i64, ptr %9, align 8
  %11 = icmp ult i64 %8, %10
  ret i1 %11
}

; Function Attrs: mustprogress nounwind uwtable
define linkonce_odr hidden void @_ZNSt3__113__atomic_baseImLb0EEC2B8ne190000Ev(ptr noundef nonnull align 8 dereferenceable(8) %0) unnamed_addr #1 comdat align 2 {
  %2 = alloca ptr, align 8
  store ptr %0, ptr %2, align 8
  %3 = load ptr, ptr %2, align 8
  %4 = getelementptr inbounds %"struct.std::__1::__atomic_base.8", ptr %3, i32 0, i32 0
  call void @_ZNSt3__117__cxx_atomic_implImNS_22__cxx_atomic_base_implImEEEC2B8ne190000Em(ptr noundef nonnull align 8 dereferenceable(8) %4, i64 noundef 0) #13
  ret void
}

; Function Attrs: mustprogress uwtable
define linkonce_odr dso_local void @_ZNSt3__117__compressed_pairIPN3tev10ThreadPool10QueuedTaskENS_9allocatorIS3_EEEC2B8ne190000IDnNS_18__default_init_tagEEEOT_OT0_(ptr noundef nonnull align 8 dereferenceable(8) %0, ptr noundef nonnull align 8 dereferenceable(8) %1, ptr noundef nonnull align 1 dereferenceable(1) %2) unnamed_addr #4 comdat align 2 {
  %4 = alloca ptr, align 8
  %5 = alloca ptr, align 8
  %6 = alloca ptr, align 8
  store ptr %0, ptr %4, align 8
  store ptr %1, ptr %5, align 8
  store ptr %2, ptr %6, align 8
  %7 = load ptr, ptr %4, align 8
  %8 = load ptr, ptr %5, align 8
  call void @_ZNSt3__122__compressed_pair_elemIPN3tev10ThreadPool10QueuedTaskELi0ELb0EEC2B8ne190000IDnTnNS_9enable_ifIXntsr7is_sameIS5_u7__decayIT_EEE5valueEiE4typeELi0EEEOS8_(ptr noundef nonnull align 8 dereferenceable(8) %7, ptr noundef nonnull align 8 dereferenceable(8) %8)
  call void @_ZNSt3__122__compressed_pair_elemINS_9allocatorIN3tev10ThreadPool10QueuedTaskEEELi1ELb1EEC2B8ne190000ENS_18__default_init_tagE(ptr noundef nonnull align 1 dereferenceable(1) %7)
  ret void
}

; Function Attrs: mustprogress nounwind uwtable
define linkonce_odr hidden void @_ZNSt3__122__compressed_pair_elemINS_9allocatorINS_6threadEEELi1ELb1EEC2B8ne190000ENS_18__default_init_tagE(ptr noundef nonnull align 1 dereferenceable(1) %0) unnamed_addr #1 comdat align 2 {
  %2 = alloca ptr, align 8
  store ptr %0, ptr %2, align 8
  %3 = load ptr, ptr %2, align 8
  call void @_ZNSt3__19allocatorINS_6threadEEC2B8ne190000Ev(ptr noundef nonnull align 1 dereferenceable(1) %3) #13
  ret void
}

; Function Attrs: mustprogress nounwind uwtable
define linkonce_odr dso_local void @_ZNSt3__122__compressed_pair_elemIPNS_6threadELi0ELb0EEC2B8ne190000IDnTnNS_9enable_ifIXntsr7is_sameIS3_u7__decayIT_EEE5valueEiE4typeELi0EEEOS6_(ptr noundef nonnull align 8 dereferenceable(8) %0, ptr noundef nonnull align 8 dereferenceable(8) %1) unnamed_addr #1 comdat align 2 {
  %3 = alloca ptr, align 8
  %4 = alloca ptr, align 8
  store ptr %0, ptr %3, align 8
  store ptr %1, ptr %4, align 8
  %5 = load ptr, ptr %3, align 8
  %6 = getelementptr inbounds %"struct.std::__1::__compressed_pair_elem", ptr %5, i32 0, i32 0
  store ptr null, ptr %6, align 8
  ret void
}

; Function Attrs: mustprogress nounwind uwtable
define linkonce_odr hidden void @_ZNSt3__118__cxx_atomic_storeB8ne190000ImEEvPNS_22__cxx_atomic_base_implIT_EES2_NS_12memory_orderE(ptr noundef %0, i64 noundef %1, i32 noundef %2) #1 comdat {
  %4 = alloca ptr, align 8
  %5 = alloca i64, align 8
  %6 = alloca i32, align 4
  %7 = alloca i64, align 8
  store ptr %0, ptr %4, align 8
  store i64 %1, ptr %5, align 8
  store i32 %2, ptr %6, align 4
  %8 = load ptr, ptr %4, align 8
  %9 = getelementptr inbounds %"struct.std::__1::__cxx_atomic_base_impl", ptr %8, i32 0, i32 0
  %10 = load i32, ptr %6, align 4
  %11 = load i64, ptr %5, align 8
  store i64 %11, ptr %7, align 8
  switch i32 %10, label %12 [
    i32 3, label %14
    i32 5, label %16
  ]

12:                                               ; preds = %3
  %13 = load i64, ptr %7, align 8
  store atomic i64 %13, ptr %9 monotonic, align 8
  br label %18

14:                                               ; preds = %3
  %15 = load i64, ptr %7, align 8
  store atomic i64 %15, ptr %9 release, align 8
  br label %18

16:                                               ; preds = %3
  %17 = load i64, ptr %7, align 8
  store atomic i64 %17, ptr %9 seq_cst, align 8
  br label %18

18:                                               ; preds = %16, %14, %12
  ret void
}

; Function Attrs: mustprogress uwtable
define linkonce_odr hidden noundef nonnull align 8 dereferenceable(8) ptr @_ZNSt3__13minB8ne190000ImNS_6__lessIvvEEEERKT_S5_S5_T0_(ptr noundef nonnull align 8 dereferenceable(8) %0, ptr noundef nonnull align 8 dereferenceable(8) %1) #4 comdat {
  %3 = alloca %"struct.std::__1::__less", align 1
  %4 = alloca ptr, align 8
  %5 = alloca ptr, align 8
  store ptr %0, ptr %4, align 8
  store ptr %1, ptr %5, align 8
  %6 = load ptr, ptr %5, align 8
  %7 = load ptr, ptr %4, align 8
  %8 = call noundef zeroext i1 @_ZNKSt3__16__lessIvvEclB8ne190000ImmEEbRKT_RKT0_(ptr noundef nonnull align 1 dereferenceable(1) %3, ptr noundef nonnull align 8 dereferenceable(8) %6, ptr noundef nonnull align 8 dereferenceable(8) %7)
  br i1 %8, label %9, label %11

9:                                                ; preds = %2
  %10 = load ptr, ptr %5, align 8
  br label %13

11:                                               ; preds = %2
  %12 = load ptr, ptr %4, align 8
  br label %13

13:                                               ; preds = %11, %9
  %14 = phi ptr [ %10, %9 ], [ %12, %11 ]
  ret ptr %14
}

; Function Attrs: mustprogress nounwind uwtable
define linkonce_odr hidden void @_ZNSt3__113__atomic_baseImLb1EEC2B8ne190000Ev(ptr noundef nonnull align 8 dereferenceable(8) %0) unnamed_addr #1 comdat align 2 {
  %2 = alloca ptr, align 8
  store ptr %0, ptr %2, align 8
  %3 = load ptr, ptr %2, align 8
  call void @_ZNSt3__113__atomic_baseImLb0EEC2B8ne190000Ev(ptr noundef nonnull align 8 dereferenceable(8) %3) #13
  ret void
}

; Function Attrs: mustprogress nounwind uwtable
define linkonce_odr hidden void @_ZNSt3__16vectorIN3tev10ThreadPool10QueuedTaskENS_9allocatorIS3_EEEC2B8ne190000Ev(ptr noundef nonnull align 8 dereferenceable(24) %0) unnamed_addr #1 comdat align 2 personality ptr @__gxx_personality_v0 {
  %2 = alloca ptr, align 8
  %3 = alloca ptr, align 8
  %4 = alloca %"struct.std::__1::__default_init_tag", align 1
  store ptr %0, ptr %2, align 8
  %5 = load ptr, ptr %2, align 8
  %6 = getelementptr inbounds %"class.std::__1::vector.1", ptr %5, i32 0, i32 0
  store ptr null, ptr %6, align 8
  %7 = getelementptr inbounds %"class.std::__1::vector.1", ptr %5, i32 0, i32 1
  store ptr null, ptr %7, align 8
  %8 = getelementptr inbounds %"class.std::__1::vector.1", ptr %5, i32 0, i32 2
  store ptr null, ptr %3, align 8
  invoke void @_ZNSt3__117__compressed_pairIPN3tev10ThreadPool10QueuedTaskENS_9allocatorIS3_EEEC2B8ne190000IDnNS_18__default_init_tagEEEOT_OT0_(ptr noundef nonnull align 8 dereferenceable(8) %8, ptr noundef nonnull align 8 dereferenceable(8) %3, ptr noundef nonnull align 1 dereferenceable(1) %4)
          to label %9 unwind label %10

9:                                                ; preds = %1
  ret void

10:                                               ; preds = %1
  %11 = landingpad { ptr, i32 }
          catch ptr null
  %12 = extractvalue { ptr, i32 } %11, 0
  call void @__clang_call_terminate(ptr %12) #15
  unreachable
}

; Function Attrs: noreturn nounwind uwtable
define linkonce_odr hidden void @__clang_call_terminate(ptr noundef %0) #5 comdat {
  %2 = call ptr @__cxa_begin_catch(ptr %0) #13
  call void @_ZSt9terminatev() #15
  unreachable
}

; Function Attrs: mustprogress uwtable
define linkonce_odr dso_local void @_ZNSt3__117__compressed_pairIPNS_6threadENS_9allocatorIS1_EEEC2B8ne190000IDnNS_18__default_init_tagEEEOT_OT0_(ptr noundef nonnull align 8 dereferenceable(8) %0, ptr noundef nonnull align 8 dereferenceable(8) %1, ptr noundef nonnull align 1 dereferenceable(1) %2) unnamed_addr #4 comdat align 2 {
  %4 = alloca ptr, align 8
  %5 = alloca ptr, align 8
  %6 = alloca ptr, align 8
  store ptr %0, ptr %4, align 8
  store ptr %1, ptr %5, align 8
  store ptr %2, ptr %6, align 8
  %7 = load ptr, ptr %4, align 8
  %8 = load ptr, ptr %5, align 8
  call void @_ZNSt3__122__compressed_pair_elemIPNS_6threadELi0ELb0EEC2B8ne190000IDnTnNS_9enable_ifIXntsr7is_sameIS3_u7__decayIT_EEE5valueEiE4typeELi0EEEOS6_(ptr noundef nonnull align 8 dereferenceable(8) %7, ptr noundef nonnull align 8 dereferenceable(8) %8)
  call void @_ZNSt3__122__compressed_pair_elemINS_9allocatorINS_6threadEEELi1ELb1EEC2B8ne190000ENS_18__default_init_tagE(ptr noundef nonnull align 1 dereferenceable(1) %7)
  ret void
}

; Function Attrs: mustprogress nounwind uwtable
define linkonce_odr hidden void @_ZNSt3__113__atomic_baseImLb0EE5storeB8ne190000EmNS_12memory_orderE(ptr noundef nonnull align 8 dereferenceable(8) %0, i64 noundef %1, i32 noundef %2) #1 comdat align 2 {
  %4 = alloca ptr, align 8
  %5 = alloca i64, align 8
  %6 = alloca i32, align 4
  store ptr %0, ptr %4, align 8
  store i64 %1, ptr %5, align 8
  store i32 %2, ptr %6, align 4
  %7 = load ptr, ptr %4, align 8
  %8 = getelementptr inbounds %"struct.std::__1::__atomic_base.8", ptr %7, i32 0, i32 0
  %9 = load i64, ptr %5, align 8
  %10 = load i32, ptr %6, align 4
  call void @_ZNSt3__118__cxx_atomic_storeB8ne190000ImEEvPNS_22__cxx_atomic_base_implIT_EES2_NS_12memory_orderE(ptr noundef %8, i64 noundef %9, i32 noundef %10) #13
  ret void
}

; Function Attrs: mustprogress uwtable
define linkonce_odr hidden noundef nonnull align 8 dereferenceable(8) ptr @_ZNSt3__13minB8ne190000ImEERKT_S3_S3_(ptr noundef nonnull align 8 dereferenceable(8) %0, ptr noundef nonnull align 8 dereferenceable(8) %1) #4 comdat {
  %3 = alloca ptr, align 8
  %4 = alloca ptr, align 8
  store ptr %0, ptr %3, align 8
  store ptr %1, ptr %4, align 8
  %5 = load ptr, ptr %3, align 8
  %6 = load ptr, ptr %4, align 8
  %7 = call noundef nonnull align 8 dereferenceable(8) ptr @_ZNSt3__13minB8ne190000ImNS_6__lessIvvEEEERKT_S5_S5_T0_(ptr noundef nonnull align 8 dereferenceable(8) %5, ptr noundef nonnull align 8 dereferenceable(8) %6)
  ret ptr %7
}

; Function Attrs: mustprogress nounwind uwtable
define linkonce_odr hidden void @_ZNSt3__16atomicImEC2B8ne190000Ev(ptr noundef nonnull align 8 dereferenceable(8) %0) unnamed_addr #1 comdat align 2 {
  %2 = alloca ptr, align 8
  store ptr %0, ptr %2, align 8
  %3 = load ptr, ptr %2, align 8
  call void @_ZNSt3__113__atomic_baseImLb1EEC2B8ne190000Ev(ptr noundef nonnull align 8 dereferenceable(8) %3) #13
  ret void
}

; Function Attrs: mustprogress nounwind uwtable
define linkonce_odr hidden void @_ZNSt3__118condition_variableC2B8ne190000Ev(ptr noundef nonnull align 8 dereferenceable(48) %0) unnamed_addr #1 comdat align 2 {
  %2 = alloca ptr, align 8
  store ptr %0, ptr %2, align 8
  %3 = load ptr, ptr %2, align 8
  %4 = getelementptr inbounds %"class.std::__1::condition_variable", ptr %3, i32 0, i32 0
  call void @llvm.memset.p0.i64(ptr align 8 %4, i8 0, i64 48, i1 false)
  ret void
}

; Function Attrs: mustprogress nounwind uwtable
define linkonce_odr hidden void @_ZNSt3__15mutexC2B8ne190000Ev(ptr noundef nonnull align 8 dereferenceable(40) %0) unnamed_addr #1 comdat align 2 {
  %2 = alloca ptr, align 8
  store ptr %0, ptr %2, align 8
  %3 = load ptr, ptr %2, align 8
  %4 = getelementptr inbounds %"class.std::__1::mutex", ptr %3, i32 0, i32 0
  call void @llvm.memset.p0.i64(ptr align 8 %4, i8 0, i64 40, i1 false)
  %5 = getelementptr inbounds %struct.__pthread_mutex_s, ptr %4, i32 0, i32 4
  store i32 0, ptr %5, align 8
  ret void
}

; Function Attrs: mustprogress nounwind uwtable
define linkonce_odr hidden void @_ZNSt3__114priority_queueIN3tev10ThreadPool10QueuedTaskENS_6vectorIS3_NS_9allocatorIS3_EEEENS3_10ComparatorEEC2B8ne190000Ev(ptr noundef nonnull align 8 dereferenceable(25) %0) unnamed_addr #1 comdat align 2 {
  %2 = alloca ptr, align 8
  store ptr %0, ptr %2, align 8
  %3 = load ptr, ptr %2, align 8
  %4 = getelementptr inbounds %"class.std::__1::priority_queue", ptr %3, i32 0, i32 0
  call void @_ZNSt3__16vectorIN3tev10ThreadPool10QueuedTaskENS_9allocatorIS3_EEEC2B8ne190000Ev(ptr noundef nonnull align 8 dereferenceable(24) %4) #13
  ret void
}

; Function Attrs: mustprogress nounwind uwtable
define linkonce_odr hidden void @_ZNSt3__16vectorINS_6threadENS_9allocatorIS1_EEEC2B8ne190000Ev(ptr noundef nonnull align 8 dereferenceable(24) %0) unnamed_addr #1 comdat align 2 personality ptr @__gxx_personality_v0 {
  %2 = alloca ptr, align 8
  %3 = alloca ptr, align 8
  %4 = alloca %"struct.std::__1::__default_init_tag", align 1
  store ptr %0, ptr %2, align 8
  %5 = load ptr, ptr %2, align 8
  %6 = getelementptr inbounds %"class.std::__1::vector", ptr %5, i32 0, i32 0
  store ptr null, ptr %6, align 8
  %7 = getelementptr inbounds %"class.std::__1::vector", ptr %5, i32 0, i32 1
  store ptr null, ptr %7, align 8
  %8 = getelementptr inbounds %"class.std::__1::vector", ptr %5, i32 0, i32 2
  store ptr null, ptr %3, align 8
  invoke void @_ZNSt3__117__compressed_pairIPNS_6threadENS_9allocatorIS1_EEEC2B8ne190000IDnNS_18__default_init_tagEEEOT_OT0_(ptr noundef nonnull align 8 dereferenceable(8) %8, ptr noundef nonnull align 8 dereferenceable(8) %3, ptr noundef nonnull align 1 dereferenceable(1) %4)
          to label %9 unwind label %10

9:                                                ; preds = %1
  ret void

10:                                               ; preds = %1
  %11 = landingpad { ptr, i32 }
          catch ptr null
  %12 = extractvalue { ptr, i32 } %11, 0
  call void @__clang_call_terminate(ptr %12) #15
  unreachable
}

; Function Attrs: mustprogress uwtable
define dso_local void @_ZN3tev10ThreadPoolC2Emb(ptr noundef nonnull align 8 dereferenceable(256) %0, i64 noundef %1, i1 noundef zeroext %2) unnamed_addr #4 align 2 personality ptr @__gxx_personality_v0 {
  %4 = alloca ptr, align 8
  %5 = alloca i64, align 8
  %6 = alloca i8, align 1
  %7 = alloca i64, align 8
  %8 = alloca ptr, align 8
  %9 = alloca i32, align 4
  store ptr %0, ptr %4, align 8
  store i64 %1, ptr %5, align 8
  %10 = zext i1 %2 to i8
  store i8 %10, ptr %6, align 1
  %11 = load ptr, ptr %4, align 8
  store ptr getelementptr inbounds ({ [4 x ptr] }, ptr @_ZTVN3tev10ThreadPoolE, i32 0, i32 0, i32 2), ptr %11, align 8
  %12 = getelementptr inbounds %"class.tev::ThreadPool", ptr %11, i32 0, i32 1
  store i64 0, ptr %12, align 8
  %13 = getelementptr inbounds %"class.tev::ThreadPool", ptr %11, i32 0, i32 2
  call void @_ZNSt3__16vectorINS_6threadENS_9allocatorIS1_EEEC2B8ne190000Ev(ptr noundef nonnull align 8 dereferenceable(24) %13) #13
  %14 = getelementptr inbounds %"class.tev::ThreadPool", ptr %11, i32 0, i32 3
  call void @_ZNSt3__114priority_queueIN3tev10ThreadPool10QueuedTaskENS_6vectorIS3_NS_9allocatorIS3_EEEENS3_10ComparatorEEC2B8ne190000Ev(ptr noundef nonnull align 8 dereferenceable(25) %14) #13
  %15 = getelementptr inbounds %"class.tev::ThreadPool", ptr %11, i32 0, i32 4
  call void @_ZNSt3__15mutexC2B8ne190000Ev(ptr noundef nonnull align 8 dereferenceable(40) %15) #13
  %16 = getelementptr inbounds %"class.tev::ThreadPool", ptr %11, i32 0, i32 5
  call void @_ZNSt3__118condition_variableC2B8ne190000Ev(ptr noundef nonnull align 8 dereferenceable(48) %16) #13
  %17 = getelementptr inbounds %"class.tev::ThreadPool", ptr %11, i32 0, i32 6
  call void @_ZNSt3__16atomicImEC2B8ne190000Ev(ptr noundef nonnull align 8 dereferenceable(8) %17) #13
  %18 = getelementptr inbounds %"class.tev::ThreadPool", ptr %11, i32 0, i32 7
  call void @_ZNSt3__15mutexC2B8ne190000Ev(ptr noundef nonnull align 8 dereferenceable(40) %18) #13
  %19 = getelementptr inbounds %"class.tev::ThreadPool", ptr %11, i32 0, i32 8
  call void @_ZNSt3__118condition_variableC2B8ne190000Ev(ptr noundef nonnull align 8 dereferenceable(48) %19) #13
  %20 = load i8, ptr %6, align 1
  %21 = trunc i8 %20 to i1
  br i1 %21, label %32, label %22

22:                                               ; preds = %3
  %23 = call noundef i32 @_ZNSt3__16thread20hardware_concurrencyEv() #13
  %24 = zext i32 %23 to i64
  store i64 %24, ptr %7, align 8
  %25 = invoke noundef nonnull align 8 dereferenceable(8) ptr @_ZNSt3__13minB8ne190000ImEERKT_S3_S3_(ptr noundef nonnull align 8 dereferenceable(8) %7, ptr noundef nonnull align 8 dereferenceable(8) %5)
          to label %26 unwind label %28

26:                                               ; preds = %22
  %27 = load i64, ptr %25, align 8
  store i64 %27, ptr %5, align 8
  br label %32

28:                                               ; preds = %32, %22
  %29 = landingpad { ptr, i32 }
          cleanup
  %30 = extractvalue { ptr, i32 } %29, 0
  store ptr %30, ptr %8, align 8
  %31 = extractvalue { ptr, i32 } %29, 1
  store i32 %31, ptr %9, align 4
  call void @_ZNSt3__118condition_variableD1Ev(ptr noundef nonnull align 8 dereferenceable(48) %19) #13
  call void @_ZNSt3__118condition_variableD1Ev(ptr noundef nonnull align 8 dereferenceable(48) %16) #13
  call void @_ZNSt3__114priority_queueIN3tev10ThreadPool10QueuedTaskENS_6vectorIS3_NS_9allocatorIS3_EEEENS3_10ComparatorEED2Ev(ptr noundef nonnull align 8 dereferenceable(25) %14) #13
  call void @_ZNSt3__16vectorINS_6threadENS_9allocatorIS1_EEED2B8ne190000Ev(ptr noundef nonnull align 8 dereferenceable(24) %13) #13
  br label %36

32:                                               ; preds = %26, %3
  %33 = load i64, ptr %5, align 8
  invoke void @_ZN3tev10ThreadPool12startThreadsEm(ptr noundef nonnull align 8 dereferenceable(256) %11, i64 noundef %33)
          to label %34 unwind label %28

34:                                               ; preds = %32
  %35 = getelementptr inbounds %"class.tev::ThreadPool", ptr %11, i32 0, i32 6
  call void @_ZNSt3__113__atomic_baseImLb0EE5storeB8ne190000EmNS_12memory_orderE(ptr noundef nonnull align 8 dereferenceable(8) %35, i64 noundef 0, i32 noundef 5) #13
  ret void

36:                                               ; preds = %28
  %37 = load ptr, ptr %8, align 8
  %38 = load i32, ptr %9, align 4
  %39 = insertvalue { ptr, i32 } poison, ptr %37, 0
  %40 = insertvalue { ptr, i32 } %39, i32 %38, 1
  resume { ptr, i32 } %40
}