; Function Attrs: mustprogress uwtable
define dso_local void @_ZN3tev10ThreadPoolC2Emb(ptr noundef nonnull align 8 dereferenceable(256) %0, i64 noundef %1, i1 noundef zeroext %2) unnamed_addr #1 align 2 personality ptr @__gxx_personality_v0 {
  store ptr getelementptr inbounds ({ [4 x ptr] }, ptr @_ZTVN3tev10ThreadPoolE, i64 0, i32 0, i64 2), ptr %0, align 8
  %4 = getelementptr inbounds i8, ptr %0, i64 8
  %5 = getelementptr inbounds i8, ptr %0, i64 72
  tail call void @llvm.memset.p0.i64(ptr noundef nonnull align 8 dereferenceable(56) %4, i8 0, i64 56, i1 false)
  tail call void @llvm.memset.p0.i64(ptr noundef nonnull align 8 dereferenceable(184) %5, i8 0, i64 184, i1 false)
  br i1 %2, label %15, label %6

6:                                                ; preds = %3
  %7 = tail call noundef i32 @_ZNSt3__16thread20hardware_concurrencyEv() #13
  %8 = zext i32 %7 to i64
  %.sroa.speculated = tail call i64 @llvm.umin.i64(i64 %8, i64 %1)
  br label %15

9:                                                ; preds = %15
  %10 = landingpad { ptr, i32 }
          cleanup
  %11 = getelementptr inbounds i8, ptr %0, i64 208
  %12 = getelementptr inbounds i8, ptr %0, i64 112
  %13 = getelementptr inbounds i8, ptr %0, i64 40
  %14 = getelementptr inbounds i8, ptr %0, i64 16
  tail call void @_ZNSt3__118condition_variableD1Ev(ptr noundef nonnull align 8 dereferenceable(48) %11) #13
  tail call void @_ZNSt3__118condition_variableD1Ev(ptr noundef nonnull align 8 dereferenceable(48) %12) #13
  tail call void @_ZNSt3__114priority_queueIN3tev10ThreadPool10QueuedTaskENS_6vectorIS3_NS_9allocatorIS3_EEEENS3_10ComparatorEED2Ev(ptr noundef nonnull align 8 dereferenceable(25) %13) #13
  tail call void @_ZNSt3__16vectorINS_6threadENS_9allocatorIS1_EEED2B8ne190000Ev(ptr noundef nonnull align 8 dereferenceable(24) %14) #13
  resume { ptr, i32 } %10

15:                                               ; preds = %6, %3
  %.0 = phi i64 [ %1, %3 ], [ %.sroa.speculated, %6 ]
  invoke void @_ZN3tev10ThreadPool12startThreadsEm(ptr noundef nonnull align 8 dereferenceable(256) %0, i64 noundef %.0)
          to label %16 unwind label %9

16:                                               ; preds = %15
  %17 = getelementptr inbounds i8, ptr %0, i64 160
  store atomic i64 0, ptr %17 seq_cst, align 8
  ret void
}